target datalayout = "e-m:e-p270:32:32-p271:32:32-p272:64:64-i64:64-i128:128-f80:128-n8:16:32:64-S128"
target triple = "x86_64-pc-linux-gnu"

%struct.bignum_st = type { ptr, i32, i32, i32, i32 }

; Function Attrs: nounwind uwtable
define hidden i32 @BN_mul_word(ptr noundef %0, i64 noundef %1) #0 {
  %3 = alloca i32, align 4
  %4 = alloca ptr, align 8
  %5 = alloca i64, align 8
  %6 = alloca i64, align 8
  %7 = alloca i32, align 4
  store ptr %0, ptr %4, align 8, !tbaa !6
  store i64 %1, ptr %5, align 8, !tbaa !21
  call void @llvm.lifetime.start.p0(i64 8, ptr %6) #4
  %8 = load i64, ptr %5, align 8, !tbaa !21
  %9 = and i64 %8, -1
  store i64 %9, ptr %5, align 8, !tbaa !21
  %10 = load ptr, ptr %4, align 8, !tbaa !6
  %11 = getelementptr inbounds nuw %struct.bignum_st, ptr %10, i32 0, i32 1
  %12 = load i32, ptr %11, align 8, !tbaa !15
  %13 = icmp ne i32 %12, 0
  br i1 %13, label %15, label %14

14:                                               ; preds = %2
  store i32 1, ptr %3, align 4
  store i32 1, ptr %7, align 4
  br label %56

15:                                               ; preds = %2
  %16 = load i64, ptr %5, align 8, !tbaa !21
  %17 = icmp eq i64 %16, 0
  br i1 %17, label %18, label %20

18:                                               ; preds = %15
  %19 = load ptr, ptr %4, align 8, !tbaa !6
  call void @BN_zero(ptr noundef %19)
  store i32 1, ptr %3, align 4
  store i32 1, ptr %7, align 4
  br label %56

20:                                               ; preds = %15
  %21 = load ptr, ptr %4, align 8, !tbaa !6
  %22 = getelementptr inbounds nuw %struct.bignum_st, ptr %21, i32 0, i32 0
  %23 = load ptr, ptr %22, align 8, !tbaa !19
  %24 = load ptr, ptr %4, align 8, !tbaa !6
  %25 = getelementptr inbounds nuw %struct.bignum_st, ptr %24, i32 0, i32 0
  %26 = load ptr, ptr %25, align 8, !tbaa !19
  %27 = load ptr, ptr %4, align 8, !tbaa !6
  %28 = getelementptr inbounds nuw %struct.bignum_st, ptr %27, i32 0, i32 1
  %29 = load i32, ptr %28, align 8, !tbaa !15
  %30 = load i64, ptr %5, align 8, !tbaa !21
  %31 = call i64 @bn_mul_words(ptr noundef %23, ptr noundef %26, i32 noundef %29, i64 noundef %30)
  store i64 %31, ptr %6, align 8, !tbaa !21
  %32 = load i64, ptr %6, align 8, !tbaa !21
  %33 = icmp ne i64 %32, 0
  br i1 %33, label %34, label %55

34:                                               ; preds = %20
  %35 = load ptr, ptr %4, align 8, !tbaa !6
  %36 = load ptr, ptr %4, align 8, !tbaa !6
  %37 = getelementptr inbounds nuw %struct.bignum_st, ptr %36, i32 0, i32 1
  %38 = load i32, ptr %37, align 8, !tbaa !15
  %39 = add nsw i32 %38, 1
  %40 = sext i32 %39 to i64
  %41 = call ptr @bn_wexpand(ptr noundef %35, i64 noundef %40)
  %42 = icmp eq ptr %41, null
  br i1 %42, label %43, label %44

43:                                               ; preds = %34
  store i32 0, ptr %3, align 4
  store i32 1, ptr %7, align 4
  br label %56

44:                                               ; preds = %34
  %45 = load i64, ptr %6, align 8, !tbaa !21
  %46 = load ptr, ptr %4, align 8, !tbaa !6
  %47 = getelementptr inbounds nuw %struct.bignum_st, ptr %46, i32 0, i32 0
  %48 = load ptr, ptr %47, align 8, !tbaa !19
  %49 = load ptr, ptr %4, align 8, !tbaa !6
  %50 = getelementptr inbounds nuw %struct.bignum_st, ptr %49, i32 0, i32 1
  %51 = load i32, ptr %50, align 8, !tbaa !15
  %52 = add nsw i32 %51, 1
  store i32 %52, ptr %50, align 8, !tbaa !15
  %53 = sext i32 %51 to i64
  %54 = getelementptr inbounds i64, ptr %48, i64 %53
  store i64 %45, ptr %54, align 8, !tbaa !21
  br label %55

55:                                               ; preds = %44, %20
  store i32 1, ptr %3, align 4
  store i32 1, ptr %7, align 4
  br label %56

56:                                               ; preds = %55, %43, %18, %14
  call void @llvm.lifetime.end.p0(i64 8, ptr %6) #4
  %57 = load i32, ptr %3, align 4
  ret i32 %57
}