; Function Attrs: nounwind uwtable
define hidden range(i32 0, 2) i32 @BN_mul_word(ptr noundef %0, i64 noundef %1) local_unnamed_addr #0 {
  %3 = getelementptr inbounds nuw i8, ptr %0, i64 8
  %4 = load i32, ptr %3, align 8, !tbaa !6
  %.not = icmp eq i32 %4, 0
  br i1 %.not, label %23, label %5

5:                                                ; preds = %2
  %6 = icmp eq i64 %1, 0
  br i1 %6, label %7, label %8

7:                                                ; preds = %5
  tail call void @BN_zero(ptr noundef nonnull %0) #5
  br label %23

8:                                                ; preds = %5
  %9 = load ptr, ptr %0, align 8, !tbaa !14
  %10 = tail call i64 @bn_mul_words(ptr noundef %9, ptr noundef %9, i32 noundef %4, i64 noundef %1) #5
  %.not17 = icmp eq i64 %10, 0
  br i1 %.not17, label %23, label %11

11:                                               ; preds = %8
  %12 = load i32, ptr %3, align 8, !tbaa !6
  %13 = add nsw i32 %12, 1
  %14 = sext i32 %13 to i64
  %15 = tail call ptr @bn_wexpand(ptr noundef nonnull %0, i64 noundef %14) #5
  %16 = icmp eq ptr %15, null
  br i1 %16, label %23, label %17

17:                                               ; preds = %11
  %18 = load ptr, ptr %0, align 8, !tbaa !14
  %19 = load i32, ptr %3, align 8, !tbaa !6
  %20 = add nsw i32 %19, 1
  store i32 %20, ptr %3, align 8, !tbaa !6
  %21 = sext i32 %19 to i64
  %22 = getelementptr inbounds i64, ptr %18, i64 %21
  store i64 %10, ptr %22, align 8, !tbaa !15
  br label %23

23:                                               ; preds = %8, %17, %11, %2, %7
  %.0 = phi i32 [ 1, %7 ], [ 1, %2 ], [ 0, %11 ], [ 1, %17 ], [ 1, %8 ]
  ret i32 %.0
}